target datalayout = "e-m:e-p270:32:32-p271:32:32-p272:64:64-i64:64-i128:128-f80:128-n8:16:32:64-S128"
target triple = "x86_64-pc-linux-gnu"

%"class.boost::system::error_code" = type { %union.anon.1, i64 }
%union.anon.1 = type { %"struct.boost::system::error_code::data" }
%"struct.boost::system::error_code::data" = type { i32, ptr }

; Function Attrs: mustprogress nounwind uwtable
define linkonce_odr hidden void @_ZN5boost6system10error_codeC2Ev(ptr noundef nonnull align 8 dereferenceable(24) %0) unnamed_addr #2 comdat align 2 {
  %2 = alloca ptr, align 8
  store ptr %0, ptr %2, align 8, !tbaa !3
  %3 = load ptr, ptr %2, align 8
  %4 = getelementptr inbounds nuw %"class.boost::system::error_code", ptr %3, i32 0, i32 0
  call void @llvm.memset.p0.i64(ptr align 8 %4, i8 0, i64 16, i1 false)
  %5 = getelementptr inbounds nuw %"class.boost::system::error_code", ptr %3, i32 0, i32 1
  store i64 0, ptr %5, align 8, !tbaa !32
  ret void
}

; Function Attrs: mustprogress nounwind uwtable
define linkonce_odr hidden void @_ZN5boost6system10error_code5clearEv(ptr noundef nonnull align 8 dereferenceable(24) %0) #2 comdat align 2 {
  %2 = alloca ptr, align 8
  %3 = alloca %"class.boost::system::error_code", align 8
  store ptr %0, ptr %2, align 8, !tbaa !3
  %4 = load ptr, ptr %2, align 8
  call void @llvm.lifetime.start.p0(i64 24, ptr %3) #14
  call void @_ZN5boost6system10error_codeC2Ev(ptr noundef nonnull align 8 dereferenceable(24) %3) #14
  call void @llvm.memcpy.p0.p0.i64(ptr align 8 %4, ptr align 8 %3, i64 24, i1 false), !tbaa.struct !21
  call void @llvm.lifetime.end.p0(i64 24, ptr %3) #14
  ret void
}

; Function Attrs: mustprogress uwtable
define noundef i64 @_ZN5boost10filesystem6detail10remove_allERKNS0_4pathEPNS_6system10error_codeE(ptr noundef nonnull align 8 dereferenceable(32) %0, ptr noundef %1) #5 {
  %3 = alloca ptr, align 8
  %4 = alloca ptr, align 8
  store ptr %0, ptr %3, align 8, !tbaa !3
  store ptr %1, ptr %4, align 8, !tbaa !3
  %5 = load ptr, ptr %4, align 8, !tbaa !3
  %6 = icmp ne ptr %5, null
  br i1 %6, label %7, label %9

7:                                                ; preds = %2
  %8 = load ptr, ptr %4, align 8, !tbaa !3
  call void @_ZN5boost6system10error_code5clearEv(ptr noundef nonnull align 8 dereferenceable(24) %8) #14
  br label %9

9:                                                ; preds = %7, %2
  %10 = load ptr, ptr %3, align 8, !tbaa !3
  %11 = load ptr, ptr %4, align 8, !tbaa !3
  %12 = call noundef i64 @_ZN5boost10filesystem6detail12_GLOBAL__N_115remove_all_implERKNS0_4pathEPNS_6system10error_codeEi(ptr noundef nonnull align 8 dereferenceable(32) %10, ptr noundef %11, i32 noundef -100)
  ret i64 %12
}