; Function Attrs: mustprogress uwtable
define noundef i64 @_ZN5boost10filesystem6detail10remove_allERKNS0_4pathEPNS_6system10error_codeE(ptr noundef nonnull align 8 dereferenceable(32) %0, ptr noundef %1) local_unnamed_addr #5 {
  %.not = icmp eq ptr %1, null
  br i1 %.not, label %.split, label %.split5

.split5:                                          ; preds = %2
  tail call void @llvm.memset.p0.i64(ptr noundef nonnull align 8 dereferenceable(24) %1, i8 0, i64 24, i1 false)
  br label %.split

.split:                                           ; preds = %2, %.split5
  %.sink = phi ptr [ %1, %.split5 ], [ null, %2 ]
  %3 = tail call fastcc noundef i64 @_ZN5boost10filesystem6detail12_GLOBAL__N_115remove_all_implERKNS0_4pathEPNS_6system10error_codeEi(ptr noundef nonnull align 8 dereferenceable(32) %0, ptr noundef %.sink, i32 noundef -100)
  ret i64 %3
}